target datalayout = "e-m:e-p270:32:32-p271:32:32-p272:64:64-i64:64-i128:128-f80:128-n8:16:32:64-S128"
target triple = "x86_64-pc-linux-gnu"

%struct.sharedObjectsStruct = type { ptr, ptr, ptr, ptr, ptr, ptr, ptr, ptr, [4 x ptr], [4 x ptr], [4 x ptr], [4 x ptr], ptr, ptr, ptr, ptr, ptr, ptr, ptr, ptr, ptr, ptr, ptr, ptr, ptr, ptr, ptr, ptr, ptr, ptr, ptr, ptr, ptr, ptr, ptr, ptr, ptr, ptr, ptr, ptr, ptr, ptr, ptr, ptr, ptr, ptr, ptr, ptr, ptr, ptr, ptr, ptr, ptr, ptr, ptr, ptr, ptr, ptr, ptr, ptr, ptr, ptr, ptr, ptr, ptr, ptr, ptr, ptr, ptr, ptr, ptr, ptr, ptr, ptr, ptr, ptr, ptr, ptr, ptr, ptr, ptr, ptr, ptr, ptr, ptr, ptr, ptr, ptr, [10 x ptr], [10000 x ptr], [32 x ptr], [32 x ptr], [32 x ptr], [32 x ptr], ptr, ptr }
%struct.redisServer = type { i32, i64, ptr, ptr, ptr, i32, i32, i32, i32, i32, ptr, ptr, ptr, ptr, ptr, i32, i32, i32, i32, i64, i32, i32, i32, i32, ptr, i32, i32, [41 x i8], i32, i64, i32, i32, i32, ptr, ptr, i32, i32, i64, ptr, ptr, ptr, ptr, [2 x i32], i32, i32, i32, i32, i32, i32, [16 x ptr], i32, ptr, ptr, i32, [8 x %struct.connListener], i32, %struct.connListener, ptr, ptr, ptr, ptr, ptr, ptr, ptr, ptr, ptr, ptr, i32, ptr, i32, ptr, [3 x %struct.pause_event], [256 x i8], ptr, i64, i32, i32, [128 x i32], i32, i32, i64, i32, i32, i32, i32, i32, i64, i64, i64, i64, i64, i64, i64, i64, i64, i64, double, i64, i64, i64, i64, i64, i64, i64, i64, i64, i64, i64, i64, i64, i64, i64, i64, i64, i64, i64, i64, i64, double, i64, i64, i64, i64, i64, ptr, i64, i64, i64, %struct.malloc_stats, i64, i64, i64, i64, i64, i64, i64, i64, i64, i64, i64, i64, double, [4 x i64], i64, i64, i64, i64, [128 x i64], [128 x i64], i64, i64, [7 x %struct.anon], i64, i64, i64, i64, i64, i64, [4 x %struct.durationStats], i32, i32, i32, i32, i32, i32, i32, i32, i32, i32, i32, i32, i64, i32, i32, i32, i32, i64, i64, i32, i32, i32, i32, i32, ptr, [3 x %struct.clientBufferLimitsConfig], i32, i32, i32, ptr, i32, i32, i32, i32, i32, i32, ptr, ptr, i32, i32, i64, i64, i64, i64, i64, i32, i32, ptr, i32, i32, i64, i64, i64, i64, i64, i32, i32, i64, i32, i32, i32, i32, i32, i32, i32, i32, ptr, i32, i64, i64, i64, i64, i32, ptr, i32, ptr, i32, i32, i32, i64, i64, i64, i64, i32, i32, i32, i32, i32, i32, ptr, i32, i32, ptr, i32, i32, i32, [2 x i32], i32, %struct.redisOpArray, i32, ptr, i32, ptr, i32, i32, i32, i32, i32, i32, i32, [41 x i8], [41 x i8], i64, i64, i64, i64, i32, i32, ptr, i64, i64, %struct.replDataBuf, i64, i64, i32, i32, i32, i32, i32, i32, i32, i32, i32, i64, ptr, i64, ptr, ptr, ptr, i32, i32, ptr, ptr, i32, i32, i32, i64, i64, i64, i64, ptr, ptr, i32, ptr, i64, i32, i32, i32, i64, i32, i32, i32, i32, ptr, i32, i32, [41 x i8], i64, i32, ptr, i32, i32, i64, i64, i32, i32, i32, i32, i32, i64, [3 x i32], i32, i32, i32, [10 x i32], ptr, ptr, i32, i64, ptr, ptr, i32, i32, i32, i32, i64, i64, i64, i64, i64, i64, i64, i64, i64, i64, i32, i32, i64, i64, i32, i64, i64, i64, i64, i64, ptr, ptr, i32, ptr, i32, i32, i32, i32, i64, i64, ptr, ptr, i32, i32, i32, i32, i32, ptr, ptr, ptr, i32, i32, i32, i32, i32, i32, i32, i64, i32, i32, i64, i32, i32, i32, i32, i32, i32, i32, i64, ptr, ptr, i64, ptr, i32, %struct.aclInfo, i32, i64, i32, i32, i32, %struct.redisTLSContextConfig, ptr, ptr, ptr, ptr, ptr, i64, i32, ptr, i32, i32, i32, i64, i32, ptr }
%struct.connListener = type { [16 x i32], i32, ptr, i32, i32, ptr, ptr }
%struct.pause_event = type { i32, i64 }
%struct.malloc_stats = type { i64, i64, i64, i64, i64, i64, i64, i64, i64, i64, i64 }
%struct.anon = type { i64, i64, [16 x i64], i32 }
%struct.durationStats = type { i64, i64, i64 }
%struct.clientBufferLimitsConfig = type { i64, i64, i64 }
%struct.redisOpArray = type { ptr, i32, i32 }
%struct.replDataBuf = type { ptr, i64, i64, i64, i64 }
%struct.aclInfo = type { i64, i64, i64, i64 }
%struct.redisTLSContextConfig = type { ptr, ptr, ptr, ptr, ptr, ptr, ptr, ptr, ptr, ptr, ptr, ptr, i32, i32, i32, i32 }
%struct.zskiplist = type { ptr, ptr, i64, i32 }
%struct.redisObject = type { i32, i32, ptr }
%struct.zset = type { ptr, ptr }
%struct.client = type { i64, i64, ptr, i8, i8, i8, i8, i32, ptr, ptr, ptr, ptr, ptr, i64, i64, i32, ptr, i32, i32, ptr, i64, ptr, ptr, ptr, ptr, ptr, i32, i32, i64, ptr, i64, ptr, i64, i64, i64, i32, ptr, i64, i64, i32, i32, i32, i32, i64, i64, ptr, i64, i64, i64, i64, i64, i64, i64, i64, [41 x i8], i32, ptr, i32, i32, i64, %struct.multiState, %struct.blockingState, i64, ptr, ptr, ptr, ptr, ptr, ptr, ptr, ptr, ptr, ptr, ptr, ptr, ptr, ptr, i64, ptr, i64, i32, ptr, ptr, ptr, i64, %struct.listNode, i64, i64, i32, i64, ptr }
%struct.multiState = type { ptr, i32, i32, i32, i64, i32 }
%struct.blockingState = type { i32, i64, i32, ptr, i32, i32, i64, ptr, ptr, i64 }
%struct.listNode = type { ptr, ptr, ptr }
%struct.redisDb = type { ptr, ptr, ptr, ptr, ptr, ptr, ptr, i32, i64, i64, ptr }

@.str.1 = private unnamed_addr constant [9 x i8] c"t_zset.c\00", align 1
@shared = external global %struct.sharedObjectsStruct, align 8
@.str.9 = private unnamed_addr constant [28 x i8] c"Unknown sorted set encoding\00", align 1
@server = external global %struct.redisServer, align 8
@.str.29 = private unnamed_addr constant [5 x i8] c"zrem\00", align 1
@.str.30 = private unnamed_addr constant [4 x i8] c"del\00", align 1

; Function Attrs: nounwind uwtable
define dso_local i32 @zzlLength(ptr noundef %0) #0 {
  %2 = alloca ptr, align 8
  store ptr %0, ptr %2, align 8, !tbaa !11
  %3 = load ptr, ptr %2, align 8, !tbaa !11
  %4 = call i64 @lpLength(ptr noundef %3)
  %5 = udiv i64 %4, 2
  %6 = trunc i64 %5 to i32
  ret i32 %6
}

; Function Attrs: nounwind uwtable
define dso_local i64 @zsetLength(ptr noundef %0) #0 {
  %2 = alloca ptr, align 8
  %3 = alloca i64, align 8
  store ptr %0, ptr %2, align 8, !tbaa !78
  call void @llvm.lifetime.start.p0(i64 8, ptr %3) #12
  store i64 0, ptr %3, align 8, !tbaa !31
  %4 = load ptr, ptr %2, align 8, !tbaa !78
  %5 = load i32, ptr %4, align 8
  %6 = lshr i32 %5, 4
  %7 = and i32 %6, 15
  %8 = icmp eq i32 %7, 11
  br i1 %8, label %9, label %15

9:                                                ; preds = %1
  %10 = load ptr, ptr %2, align 8, !tbaa !78
  %11 = getelementptr inbounds nuw %struct.redisObject, ptr %10, i32 0, i32 2
  %12 = load ptr, ptr %11, align 8, !tbaa !84
  %13 = call i32 @zzlLength(ptr noundef %12)
  %14 = zext i32 %13 to i64
  store i64 %14, ptr %3, align 8, !tbaa !31
  br label %31

15:                                               ; preds = %1
  %16 = load ptr, ptr %2, align 8, !tbaa !78
  %17 = load i32, ptr %16, align 8
  %18 = lshr i32 %17, 4
  %19 = and i32 %18, 15
  %20 = icmp eq i32 %19, 7
  br i1 %20, label %21, label %29

21:                                               ; preds = %15
  %22 = load ptr, ptr %2, align 8, !tbaa !78
  %23 = getelementptr inbounds nuw %struct.redisObject, ptr %22, i32 0, i32 2
  %24 = load ptr, ptr %23, align 8, !tbaa !84
  %25 = getelementptr inbounds nuw %struct.zset, ptr %24, i32 0, i32 1
  %26 = load ptr, ptr %25, align 8, !tbaa !112
  %27 = getelementptr inbounds nuw %struct.zskiplist, ptr %26, i32 0, i32 2
  %28 = load i64, ptr %27, align 8, !tbaa !21
  store i64 %28, ptr %3, align 8, !tbaa !31
  br label %30

29:                                               ; preds = %15
  call void (ptr, i32, ptr, ...) @_serverPanic(ptr noundef @.str.1, i32 noundef 1210, ptr noundef @.str.9)
  call void @abort() #14
  unreachable

30:                                               ; preds = %21
  br label %31

31:                                               ; preds = %30, %9
  %32 = load i64, ptr %3, align 8, !tbaa !31
  call void @llvm.lifetime.end.p0(i64 8, ptr %3) #12
  ret i64 %32
}

; Function Attrs: nounwind uwtable
define dso_local void @zremCommand(ptr noundef %0) #0 {
  %2 = alloca ptr, align 8
  %3 = alloca ptr, align 8
  %4 = alloca ptr, align 8
  %5 = alloca i32, align 4
  %6 = alloca i32, align 4
  %7 = alloca i32, align 4
  %8 = alloca i32, align 4
  %9 = alloca i64, align 8
  store ptr %0, ptr %2, align 8, !tbaa !150
  call void @llvm.lifetime.start.p0(i64 8, ptr %3) #12
  %10 = load ptr, ptr %2, align 8, !tbaa !150
  %11 = getelementptr inbounds nuw %struct.client, ptr %10, i32 0, i32 16
  %12 = load ptr, ptr %11, align 8, !tbaa !151
  %13 = getelementptr inbounds ptr, ptr %12, i64 1
  %14 = load ptr, ptr %13, align 8, !tbaa !78
  store ptr %14, ptr %3, align 8, !tbaa !78
  call void @llvm.lifetime.start.p0(i64 8, ptr %4) #12
  call void @llvm.lifetime.start.p0(i64 4, ptr %5) #12
  store i32 0, ptr %5, align 4, !tbaa !5
  call void @llvm.lifetime.start.p0(i64 4, ptr %6) #12
  store i32 0, ptr %6, align 4, !tbaa !5
  call void @llvm.lifetime.start.p0(i64 4, ptr %7) #12
  %15 = load ptr, ptr %2, align 8, !tbaa !150
  %16 = load ptr, ptr %3, align 8, !tbaa !78
  %17 = load ptr, ptr getelementptr inbounds nuw (%struct.sharedObjectsStruct, ptr @shared, i32 0, i32 3), align 8, !tbaa !169
  %18 = call ptr @lookupKeyWriteOrReply(ptr noundef %15, ptr noundef %16, ptr noundef %17)
  store ptr %18, ptr %4, align 8, !tbaa !78
  %19 = icmp eq ptr %18, null
  br i1 %19, label %25, label %20

20:                                               ; preds = %1
  %21 = load ptr, ptr %2, align 8, !tbaa !150
  %22 = load ptr, ptr %4, align 8, !tbaa !78
  %23 = call i32 @checkType(ptr noundef %21, ptr noundef %22, i32 noundef 3)
  %24 = icmp ne i32 %23, 0
  br i1 %24, label %25, label %26

25:                                               ; preds = %20, %1
  store i32 1, ptr %8, align 4
  br label %111

26:                                               ; preds = %20
  store i32 2, ptr %7, align 4, !tbaa !5
  br label %27

27:                                               ; preds = %60, %26
  %28 = load i32, ptr %7, align 4, !tbaa !5
  %29 = load ptr, ptr %2, align 8, !tbaa !150
  %30 = getelementptr inbounds nuw %struct.client, ptr %29, i32 0, i32 15
  %31 = load i32, ptr %30, align 8, !tbaa !160
  %32 = icmp slt i32 %28, %31
  br i1 %32, label %33, label %63

33:                                               ; preds = %27
  %34 = load ptr, ptr %4, align 8, !tbaa !78
  %35 = load ptr, ptr %2, align 8, !tbaa !150
  %36 = getelementptr inbounds nuw %struct.client, ptr %35, i32 0, i32 16
  %37 = load ptr, ptr %36, align 8, !tbaa !151
  %38 = load i32, ptr %7, align 4, !tbaa !5
  %39 = sext i32 %38 to i64
  %40 = getelementptr inbounds ptr, ptr %37, i64 %39
  %41 = load ptr, ptr %40, align 8, !tbaa !78
  %42 = getelementptr inbounds nuw %struct.redisObject, ptr %41, i32 0, i32 2
  %43 = load ptr, ptr %42, align 8, !tbaa !84
  %44 = call i32 @zsetDel(ptr noundef %34, ptr noundef %43)
  %45 = icmp ne i32 %44, 0
  br i1 %45, label %46, label %49

46:                                               ; preds = %33
  %47 = load i32, ptr %5, align 4, !tbaa !5
  %48 = add nsw i32 %47, 1
  store i32 %48, ptr %5, align 4, !tbaa !5
  br label %49

49:                                               ; preds = %46, %33
  %50 = load ptr, ptr %4, align 8, !tbaa !78
  %51 = call i64 @zsetLength(ptr noundef %50)
  %52 = icmp eq i64 %51, 0
  br i1 %52, label %53, label %59

53:                                               ; preds = %49
  %54 = load ptr, ptr %2, align 8, !tbaa !150
  %55 = getelementptr inbounds nuw %struct.client, ptr %54, i32 0, i32 8
  %56 = load ptr, ptr %55, align 8, !tbaa !164
  %57 = load ptr, ptr %3, align 8, !tbaa !78
  %58 = call i32 @dbDelete(ptr noundef %56, ptr noundef %57)
  store i32 1, ptr %6, align 4, !tbaa !5
  br label %63

59:                                               ; preds = %49
  br label %60

60:                                               ; preds = %59
  %61 = load i32, ptr %7, align 4, !tbaa !5
  %62 = add nsw i32 %61, 1
  store i32 %62, ptr %7, align 4, !tbaa !5
  br label %27, !llvm.loop !170

63:                                               ; preds = %53, %27
  %64 = load i32, ptr %5, align 4, !tbaa !5
  %65 = icmp ne i32 %64, 0
  br i1 %65, label %66, label %107

66:                                               ; preds = %63
  %67 = load ptr, ptr %3, align 8, !tbaa !78
  %68 = load ptr, ptr %2, align 8, !tbaa !150
  %69 = getelementptr inbounds nuw %struct.client, ptr %68, i32 0, i32 8
  %70 = load ptr, ptr %69, align 8, !tbaa !164
  %71 = getelementptr inbounds nuw %struct.redisDb, ptr %70, i32 0, i32 7
  %72 = load i32, ptr %71, align 8, !tbaa !167
  call void @notifyKeyspaceEvent(i32 noundef 128, ptr noundef @.str.29, ptr noundef %67, i32 noundef %72)
  %73 = load i32, ptr %6, align 4, !tbaa !5
  %74 = icmp ne i32 %73, 0
  br i1 %74, label %75, label %82

75:                                               ; preds = %66
  %76 = load ptr, ptr %3, align 8, !tbaa !78
  %77 = load ptr, ptr %2, align 8, !tbaa !150
  %78 = getelementptr inbounds nuw %struct.client, ptr %77, i32 0, i32 8
  %79 = load ptr, ptr %78, align 8, !tbaa !164
  %80 = getelementptr inbounds nuw %struct.redisDb, ptr %79, i32 0, i32 7
  %81 = load i32, ptr %80, align 8, !tbaa !167
  call void @notifyKeyspaceEvent(i32 noundef 4, ptr noundef @.str.30, ptr noundef %76, i32 noundef %81)
  br label %97

82:                                               ; preds = %66
  call void @llvm.lifetime.start.p0(i64 8, ptr %9) #12
  %83 = load ptr, ptr %4, align 8, !tbaa !78
  %84 = call i64 @zsetLength(ptr noundef %83)
  store i64 %84, ptr %9, align 8, !tbaa !31
  %85 = load ptr, ptr %2, align 8, !tbaa !150
  %86 = getelementptr inbounds nuw %struct.client, ptr %85, i32 0, i32 8
  %87 = load ptr, ptr %86, align 8, !tbaa !164
  %88 = load ptr, ptr %3, align 8, !tbaa !78
  %89 = getelementptr inbounds nuw %struct.redisObject, ptr %88, i32 0, i32 2
  %90 = load ptr, ptr %89, align 8, !tbaa !84
  %91 = call i32 @getKeySlot(ptr noundef %90)
  %92 = load i64, ptr %9, align 8, !tbaa !31
  %93 = load i32, ptr %5, align 4, !tbaa !5
  %94 = sext i32 %93 to i64
  %95 = add i64 %92, %94
  %96 = load i64, ptr %9, align 8, !tbaa !31
  call void @updateKeysizesHist(ptr noundef %87, i32 noundef %91, i32 noundef 3, i64 noundef %95, i64 noundef %96)
  call void @llvm.lifetime.end.p0(i64 8, ptr %9) #12
  br label %97

97:                                               ; preds = %82, %75
  %98 = load ptr, ptr %2, align 8, !tbaa !150
  %99 = load ptr, ptr %2, align 8, !tbaa !150
  %100 = getelementptr inbounds nuw %struct.client, ptr %99, i32 0, i32 8
  %101 = load ptr, ptr %100, align 8, !tbaa !164
  %102 = load ptr, ptr %3, align 8, !tbaa !78
  call void @signalModifiedKey(ptr noundef %98, ptr noundef %101, ptr noundef %102)
  %103 = load i32, ptr %5, align 4, !tbaa !5
  %104 = sext i32 %103 to i64
  %105 = load i64, ptr getelementptr inbounds nuw (%struct.redisServer, ptr @server, i32 0, i32 227), align 8, !tbaa !166
  %106 = add nsw i64 %105, %104
  store i64 %106, ptr getelementptr inbounds nuw (%struct.redisServer, ptr @server, i32 0, i32 227), align 8, !tbaa !166
  br label %107

107:                                              ; preds = %97, %63
  %108 = load ptr, ptr %2, align 8, !tbaa !150
  %109 = load i32, ptr %5, align 4, !tbaa !5
  %110 = sext i32 %109 to i64
  call void @addReplyLongLong(ptr noundef %108, i64 noundef %110)
  store i32 0, ptr %8, align 4
  br label %111

111:                                              ; preds = %107, %25
  call void @llvm.lifetime.end.p0(i64 4, ptr %7) #12
  call void @llvm.lifetime.end.p0(i64 4, ptr %6) #12
  call void @llvm.lifetime.end.p0(i64 4, ptr %5) #12
  call void @llvm.lifetime.end.p0(i64 8, ptr %4) #12
  call void @llvm.lifetime.end.p0(i64 8, ptr %3) #12
  %112 = load i32, ptr %8, align 4
  switch i32 %112, label %114 [
    i32 0, label %113
    i32 1, label %113
  ]

113:                                              ; preds = %111, %111
  ret void

114:                                              ; preds = %111
  unreachable
}