; Function Attrs: nounwind uwtable
define dso_local void @zremCommand(ptr noundef %0) local_unnamed_addr #0 {
  %2 = getelementptr inbounds nuw i8, ptr %0, i64 96
  %3 = load ptr, ptr %2, align 8, !tbaa !136
  %4 = getelementptr inbounds nuw i8, ptr %3, i64 8
  %5 = load ptr, ptr %4, align 8, !tbaa !146
  %6 = load ptr, ptr getelementptr inbounds nuw (i8, ptr @shared, i64 24), align 8, !tbaa !155
  %7 = tail call ptr @lookupKeyWriteOrReply(ptr noundef %0, ptr noundef %5, ptr noundef %6) #18
  %8 = icmp eq ptr %7, null
  br i1 %8, label %81, label %9

9:                                                ; preds = %1
  %10 = tail call i32 @checkType(ptr noundef nonnull %0, ptr noundef nonnull %7, i32 noundef 3) #18
  %.not = icmp eq i32 %10, 0
  br i1 %.not, label %.preheader, label %81

.preheader:                                       ; preds = %9
  %11 = getelementptr inbounds nuw i8, ptr %0, i64 88
  %12 = load i32, ptr %11, align 8, !tbaa !147
  %.not3847 = icmp sgt i32 %12, 2
  br i1 %.not3847, label %.lr.ph, label %.loopexit._crit_edge

.lr.ph:                                           ; preds = %.preheader
  %13 = getelementptr inbounds nuw i8, ptr %7, i64 8
  br label %17

14:                                               ; preds = %zsetLength.exit
  %indvars.iv.next = add nuw nsw i64 %indvars.iv, 1
  %15 = load i32, ptr %11, align 8, !tbaa !147
  %16 = sext i32 %15 to i64
  %.not38 = icmp slt i64 %indvars.iv.next, %16
  br i1 %.not38, label %17, label %.loopexit, !llvm.loop !156

17:                                               ; preds = %.lr.ph, %14
  %indvars.iv = phi i64 [ 2, %.lr.ph ], [ %indvars.iv.next, %14 ]
  %.049 = phi i32 [ 0, %.lr.ph ], [ %spec.select, %14 ]
  %18 = load ptr, ptr %2, align 8, !tbaa !136
  %19 = getelementptr inbounds nuw ptr, ptr %18, i64 %indvars.iv
  %20 = load ptr, ptr %19, align 8, !tbaa !146
  %21 = getelementptr inbounds nuw i8, ptr %20, i64 8
  %22 = load ptr, ptr %21, align 8, !tbaa !75
  %23 = tail call i32 @zsetDel(ptr noundef nonnull %7, ptr noundef %22)
  %spec.select = add nuw nsw i32 %23, %.049
  %24 = load i32, ptr %7, align 8
  %25 = lshr i32 %24, 4
  %26 = and i32 %25, 15
  switch i32 %26, label %38 [
    i32 11, label %27
    i32 7, label %32
  ]

27:                                               ; preds = %17
  %28 = load ptr, ptr %13, align 8, !tbaa !75
  %29 = tail call i64 @lpLength(ptr noundef %28) #18
  %30 = lshr i64 %29, 1
  %31 = and i64 %30, 4294967295
  br label %zsetLength.exit

32:                                               ; preds = %17
  %33 = load ptr, ptr %13, align 8, !tbaa !75
  %34 = getelementptr inbounds nuw i8, ptr %33, i64 8
  %35 = load ptr, ptr %34, align 8, !tbaa !97
  %36 = getelementptr inbounds nuw i8, ptr %35, i64 16
  %37 = load i64, ptr %36, align 8, !tbaa !17
  br label %zsetLength.exit

38:                                               ; preds = %17
  tail call void (ptr, i32, ptr, ...) @_serverPanic(ptr noundef nonnull @.str.1, i32 noundef 1210, ptr noundef nonnull @.str.9) #18
  tail call void @abort() #19
  unreachable

zsetLength.exit:                                  ; preds = %27, %32
  %.0.i = phi i64 [ %31, %27 ], [ %37, %32 ]
  %39 = icmp eq i64 %.0.i, 0
  br i1 %39, label %40, label %14

40:                                               ; preds = %zsetLength.exit
  %41 = getelementptr inbounds nuw i8, ptr %0, i64 32
  %42 = load ptr, ptr %41, align 8, !tbaa !150
  %43 = tail call i32 @dbDelete(ptr noundef %42, ptr noundef %5) #18
  br label %.loopexit

.loopexit:                                        ; preds = %14, %40
  %.not36 = icmp eq i32 %spec.select, 0
  br i1 %.not36, label %.loopexit._crit_edge, label %44

44:                                               ; preds = %.loopexit
  %45 = getelementptr inbounds nuw i8, ptr %0, i64 32
  %46 = load ptr, ptr %45, align 8, !tbaa !150
  %47 = getelementptr inbounds nuw i8, ptr %46, i64 56
  %48 = load i32, ptr %47, align 8, !tbaa !153
  tail call void @notifyKeyspaceEvent(i32 noundef 128, ptr noundef nonnull @.str.29, ptr noundef %5, i32 noundef %48) #18
  br i1 %39, label %49, label %53

49:                                               ; preds = %44
  %50 = load ptr, ptr %45, align 8, !tbaa !150
  %51 = getelementptr inbounds nuw i8, ptr %50, i64 56
  %52 = load i32, ptr %51, align 8, !tbaa !153
  tail call void @notifyKeyspaceEvent(i32 noundef 4, ptr noundef nonnull @.str.30, ptr noundef %5, i32 noundef %52) #18
  %.pre = zext nneg i32 %spec.select to i64
  br label %77

53:                                               ; preds = %44
  %54 = load i32, ptr %7, align 8
  %55 = lshr i32 %54, 4
  %56 = and i32 %55, 15
  switch i32 %56, label %70 [
    i32 11, label %57
    i32 7, label %63
  ]

57:                                               ; preds = %53
  %58 = getelementptr inbounds nuw i8, ptr %7, i64 8
  %59 = load ptr, ptr %58, align 8, !tbaa !75
  %60 = tail call i64 @lpLength(ptr noundef %59) #18
  %61 = lshr i64 %60, 1
  %62 = and i64 %61, 4294967295
  br label %zsetLength.exit40

63:                                               ; preds = %53
  %64 = getelementptr inbounds nuw i8, ptr %7, i64 8
  %65 = load ptr, ptr %64, align 8, !tbaa !75
  %66 = getelementptr inbounds nuw i8, ptr %65, i64 8
  %67 = load ptr, ptr %66, align 8, !tbaa !97
  %68 = getelementptr inbounds nuw i8, ptr %67, i64 16
  %69 = load i64, ptr %68, align 8, !tbaa !17
  br label %zsetLength.exit40

70:                                               ; preds = %53
  tail call void (ptr, i32, ptr, ...) @_serverPanic(ptr noundef nonnull @.str.1, i32 noundef 1210, ptr noundef nonnull @.str.9) #18
  tail call void @abort() #19
  unreachable

zsetLength.exit40:                                ; preds = %57, %63
  %.0.i39 = phi i64 [ %62, %57 ], [ %69, %63 ]
  %71 = load ptr, ptr %45, align 8, !tbaa !150
  %72 = getelementptr inbounds nuw i8, ptr %5, i64 8
  %73 = load ptr, ptr %72, align 8, !tbaa !75
  %74 = tail call i32 @getKeySlot(ptr noundef %73) #18
  %75 = zext nneg i32 %spec.select to i64
  %76 = add i64 %.0.i39, %75
  tail call void @updateKeysizesHist(ptr noundef %71, i32 noundef %74, i32 noundef 3, i64 noundef %76, i64 noundef %.0.i39) #18
  br label %77

77:                                               ; preds = %zsetLength.exit40, %49
  %.pre-phi = phi i64 [ %75, %zsetLength.exit40 ], [ %.pre, %49 ]
  %78 = load ptr, ptr %45, align 8, !tbaa !150
  tail call void @signalModifiedKey(ptr noundef nonnull %0, ptr noundef %78, ptr noundef %5) #18
  %79 = load i64, ptr getelementptr inbounds nuw (i8, ptr @server, i64 6720), align 8, !tbaa !152
  %80 = add nsw i64 %79, %.pre-phi
  store i64 %80, ptr getelementptr inbounds nuw (i8, ptr @server, i64 6720), align 8, !tbaa !152
  br label %.loopexit._crit_edge

.loopexit._crit_edge:                             ; preds = %.loopexit, %.preheader, %77
  %.pre-phi56 = phi i64 [ %.pre-phi, %77 ], [ 0, %.preheader ], [ 0, %.loopexit ]
  tail call void @addReplyLongLong(ptr noundef nonnull %0, i64 noundef %.pre-phi56) #18
  br label %81

81:                                               ; preds = %1, %9, %.loopexit._crit_edge
  ret void
}